target datalayout = "e-m:e-p270:32:32-p271:32:32-p272:64:64-i64:64-i128:128-f80:128-n8:16:32:64-S128"
target triple = "x86_64-unknown-linux-gnu"

@.str = private unnamed_addr constant [139 x i8] c"generated/home/dtcxzyw/WorkSpace/Projects/compilers/llvm-opt-benchmark/bench/grpc/grpc/src/core/lib/iomgr/tcp_server_utils_posix_common.cc\00", align 1
@_ZL23s_max_accept_queue_size = internal global i32 0, align 4
@.str.16 = private unnamed_addr constant [29 x i8] c"/proc/sys/net/core/somaxconn\00", align 1
@.str.17 = private unnamed_addr constant [2 x i8] c"r\00", align 1
@.str.18 = private unnamed_addr constant [76 x i8] c"Suspiciously small accept queue (%d) will probably lead to connection drops\00", align 1

; Function Attrs: mustprogress uwtable
define internal void @_ZL26init_max_accept_queue_sizev() #4 {
entry:
  %n = alloca i32, align 4
  %buf = alloca [64 x i8], align 16
  %fp = alloca ptr, align 8
  %end = alloca ptr, align 8
  %i = alloca i64, align 8
  store i32 4096, ptr %n, align 4
  %call = call noalias ptr @fopen(ptr noundef @.str.16, ptr noundef @.str.17)
  store ptr %call, ptr %fp, align 8
  %0 = load ptr, ptr %fp, align 8
  %cmp = icmp eq ptr %0, null
  br i1 %cmp, label %if.then, label %if.end

if.then:                                          ; preds = %entry
  store i32 4096, ptr @_ZL23s_max_accept_queue_size, align 4
  br label %if.end18

if.end:                                           ; preds = %entry
  %arraydecay = getelementptr inbounds [64 x i8], ptr %buf, i64 0, i64 0
  %1 = load ptr, ptr %fp, align 8
  %call1 = call ptr @fgets(ptr noundef %arraydecay, i32 noundef 64, ptr noundef %1)
  %tobool = icmp ne ptr %call1, null
  br i1 %tobool, label %if.then2, label %if.end14

if.then2:                                         ; preds = %if.end
  %arraydecay3 = getelementptr inbounds [64 x i8], ptr %buf, i64 0, i64 0
  %call4 = call i64 @strtol(ptr noundef %arraydecay3, ptr noundef %end, i32 noundef 10) #3
  store i64 %call4, ptr %i, align 8
  %2 = load i64, ptr %i, align 8
  %cmp5 = icmp sgt i64 %2, 0
  br i1 %cmp5, label %land.lhs.true, label %if.end13

land.lhs.true:                                    ; preds = %if.then2
  %3 = load i64, ptr %i, align 8
  %cmp6 = icmp sle i64 %3, 2147483647
  br i1 %cmp6, label %land.lhs.true7, label %if.end13

land.lhs.true7:                                   ; preds = %land.lhs.true
  %4 = load ptr, ptr %end, align 8
  %tobool8 = icmp ne ptr %4, null
  br i1 %tobool8, label %land.lhs.true9, label %if.end13

land.lhs.true9:                                   ; preds = %land.lhs.true7
  %5 = load ptr, ptr %end, align 8
  %6 = load i8, ptr %5, align 1
  %conv = sext i8 %6 to i32
  %cmp10 = icmp eq i32 %conv, 10
  br i1 %cmp10, label %if.then11, label %if.end13

if.then11:                                        ; preds = %land.lhs.true9
  %7 = load i64, ptr %i, align 8
  %conv12 = trunc i64 %7 to i32
  store i32 %conv12, ptr %n, align 4
  br label %if.end13

if.end13:                                         ; preds = %if.then11, %land.lhs.true9, %land.lhs.true7, %land.lhs.true, %if.then2
  br label %if.end14

if.end14:                                         ; preds = %if.end13, %if.end
  %8 = load ptr, ptr %fp, align 8
  %call15 = call i32 @fclose(ptr noundef %8)
  %9 = load i32, ptr %n, align 4
  store i32 %9, ptr @_ZL23s_max_accept_queue_size, align 4
  %10 = load i32, ptr @_ZL23s_max_accept_queue_size, align 4
  %cmp16 = icmp slt i32 %10, 100
  br i1 %cmp16, label %if.then17, label %if.end18

if.then17:                                        ; preds = %if.end14
  %11 = load i32, ptr @_ZL23s_max_accept_queue_size, align 4
  call void (ptr, i32, i32, ptr, ...) @gpr_log(ptr noundef @.str, i32 noundef 75, i32 noundef 1, ptr noundef @.str.18, i32 noundef %11)
  br label %if.end18

if.end18:                                         ; preds = %if.then17, %if.end14, %if.then
  ret void
}