; Function Attrs: mustprogress uwtable
define internal void @_ZL26init_max_accept_queue_sizev() #3 {
entry:
  %buf = alloca [64 x i8], align 16
  %end = alloca ptr, align 8
  %call = tail call noalias ptr @fopen(ptr noundef nonnull @.str.16, ptr noundef nonnull @.str.17)
  %cmp = icmp eq ptr %call, null
  br i1 %cmp, label %if.then, label %if.end

if.then:                                          ; preds = %entry
  store i32 4096, ptr @_ZL23s_max_accept_queue_size, align 4
  br label %if.end18

if.end:                                           ; preds = %entry
  %call1 = call ptr @fgets(ptr noundef nonnull %buf, i32 noundef 64, ptr noundef nonnull %call)
  %tobool.not = icmp eq ptr %call1, null
  br i1 %tobool.not, label %if.end14.thread, label %if.then2

if.then2:                                         ; preds = %if.end
  %call4 = call i64 @strtol(ptr noundef nonnull %buf, ptr noundef nonnull %end, i32 noundef 10) #16
  %0 = add i64 %call4, -1
  %or.cond = icmp ult i64 %0, 2147483647
  %1 = load ptr, ptr %end, align 8
  %tobool8 = icmp ne ptr %1, null
  %or.cond1 = select i1 %or.cond, i1 %tobool8, i1 false
  br i1 %or.cond1, label %land.lhs.true9, label %if.end14.thread

land.lhs.true9:                                   ; preds = %if.then2
  %2 = load i8, ptr %1, align 1
  %cmp10 = icmp eq i8 %2, 10
  %conv12 = trunc i64 %call4 to i32
  br i1 %cmp10, label %if.end14, label %if.end14.thread

if.end14.thread:                                  ; preds = %if.then2, %if.end, %land.lhs.true9
  %call157 = call i32 @fclose(ptr noundef nonnull %call)
  store i32 4096, ptr @_ZL23s_max_accept_queue_size, align 4
  br label %if.end18

if.end14:                                         ; preds = %land.lhs.true9
  %call15 = call i32 @fclose(ptr noundef nonnull %call)
  store i32 %conv12, ptr @_ZL23s_max_accept_queue_size, align 4
  %cmp16 = icmp ult i32 %conv12, 100
  br i1 %cmp16, label %if.then17, label %if.end18

if.then17:                                        ; preds = %if.end14
  call void (ptr, i32, i32, ptr, ...) @gpr_log(ptr noundef nonnull @.str, i32 noundef 75, i32 noundef 1, ptr noundef nonnull @.str.18, i32 noundef %conv12)
  br label %if.end18

if.end18:                                         ; preds = %if.end14.thread, %if.then17, %if.end14, %if.then
  ret void
}